Certificate:
    Data:
        Version: 3 (0x2)
        Serial Number: 1227750 (0x12bbe6)
        Signature Algorithm: sha1WithRSAEncryption
        Issuer: C=US, O=Equifax, OU=Equifax Secure Certificate Authority
        Validity
            Not Before: May 21 04:00:00 2002 GMT
            Not After : Aug 21 04:00:00 2018 GMT
        Subject: C=US, O=GeoTrust Inc., CN=GeoTrust Global CA
        Subject Public Key Info:
            Public Key Algorithm: rsaEncryption
            RSA Public Key: (2048 bit)
                Modulus (2048 bit):
                    00:da:cc:18:63:30:fd:f4:17:23:1a:56:7e:5b:df:
                    3c:6c:38:e4:71:b7:78:91:d4:bc:a1:d8:4c:f8:a8:
                    43:b6:03:e9:4d:21:07:08:88:da:58:2f:66:39:29:
                    bd:05:78:8b:9d:38:e8:05:b7:6a:7e:71:a4:e6:c4:
                    60:a6:b0:ef:80:e4:89:28:0f:9e:25:d6:ed:83:f3:
                    ad:a6:91:c7:98:c9:42:18:35:14:9d:ad:98:46:92:
                    2e:4f:ca:f1:87:43:c1:16:95:57:2d:50:ef:89:2d:
                    80:7a:57:ad:f2:ee:5f:6b:d2:00:8d:b9:14:f8:14:
                    15:35:d9:c0:46:a3:7b:72:c8:91:bf:c9:55:2b:cd:
                    d0:97:3e:9c:26:64:cc:df:ce:83:19:71:ca:4e:e6:
                    d4:d5:7b:a9:19:cd:55:de:c8:ec:d2:5e:38:53:e5:
                    5c:4f:8c:2d:fe:50:23:36:fc:66:e6:cb:8e:a4:39:
                    19:00:b7:95:02:39:91:0b:0e:fe:38:2e:d1:1d:05:
                    9a:f6:4d:3e:6f:0f:07:1d:af:2c:1e:8f:60:39:e2:
                    fa:36:53:13:39:d4:5e:26:2b:db:3d:a8:14:bd:32:
                    eb:18:03:28:52:04:71:e5:ab:33:3d:e1:38:bb:07:
                    36:84:62:9c:79:ea:16:30:f4:5f:c0:2b:e8:71:6b:
                    e4:f9
                Exponent: 65537 (0x10001)
        X509v3 extensions:
            X509v3 Authority Key Identifier: 
                keyid:48:E6:68:F9:2B:D2:B2:95:D7:47:D8:23:20:10:4F:33:98:90:9F:D4

            X509v3 Subject Key Identifier: 
                C0:7A:98:68:8D:89:FB:AB:05:64:0C:11:7D:AA:7D:65:B8:CA:CC:4E
            X509v3 Basic Constraints: critical
                CA:TRUE
            X509v3 Key Usage: critical
                Certificate Sign, CRL Sign
            X509v3 CRL Distribution Points: 
                URI:http://crl.geotrust.com/crls/secureca.crl

            X509v3 Certificate Policies: 
                Policy: X509v3 Any Policy
                  CPS: https://www.geotrust.com/resources/repository

    Signature Algorithm: sha1WithRSAEncryption
        76:e1:12:6e:4e:4b:16:12:86:30:06:b2:81:08:cf:f0:08:c7:
        c7:71:7e:66:ee:c2:ed:d4:3b:1f:ff:f0:f0:c8:4e:d6:43:38:
        b0:b9:30:7d:18:d0:55:83:a2:6a:cb:36:11:9c:e8:48:66:a3:
        6d:7f:b8:13:d4:47:fe:8b:5a:5c:73:fc:ae:d9:1b:32:19:38:
        ab:97:34:14:aa:96:d2:eb:a3:1c:14:08:49:b6:bb:e5:91:ef:
        83:36:eb:1d:56:6f:ca:da:bc:73:63:90:e4:7f:7b:3e:22:cb:
        3d:07:ed:5f:38:74:9c:e3:03:50:4e:a1:af:98:ee:61:f2:84:
        3f:12
-----BEGIN CERTIFICATE-----
MIIDfTCCAuagAwIBAgIDErvmMA0GCSqGSIb3DQEBBQUAME4xCzAJBgNVBAYTAlVT
MRAwDgYDVQQKEwdFcXVpZmF4MS0wKwYDVQQLEyRFcXVpZmF4IFNlY3VyZSBDZXJ0
aWZpY2F0ZSBBdXRob3JpdHkwHhcNMDIwNTIxMDQwMDAwWhcNMTgwODIxMDQwMDAw
WjBCMQswCQYDVQQGEwJVUzEWMBQGA1UEChMNR2VvVHJ1c3QgSW5jLjEbMBkGA1UE
AxMSR2VvVHJ1c3QgR2xvYmFsIENBMIIBIjANBgkqhkiG9w0BAQEFAAOCAQ8AMIIB
CgKCAQEA2swYYzD99BcjGlZ+W988bDjkcbd4kdS8odhM+KhDtgPpTSEHCIjaWC9m
OSm9BXiLnTjoBbdqfnGk5sRgprDvgOSJKA+eJdbtg/OtppHHmMlCGDUUna2YRpIu
T8rxh0PBFpVXLVDviS2Aelet8u5fa9IAjbkU+BQVNdnARqN7csiRv8lVK83Qlz6c
JmTM386DGXHKTubU1XupGc1V3sjs0l44U+VcT4wt/lAjNvxm5suOpDkZALeVAjmR
Cw7+OC7RHQWa9k0+bw8HHa8sHo9gOeL6NlMTOdReJivbPagUvTLrGAMoUgRx5asz
PeE4uwc2hGKceeoWMPRfwCvocWvk+QIDAQABo4HwMIHtMB8GA1UdIwQYMBaAFEjm
aPkr0rKV10fYIyAQTzOYkJ/UMB0GA1UdDgQWBBTAephojYn7qwVkDBF9qn1luMrM
TjAPBgNVHRMBAf8EBTADAQH/MA4GA1UdDwEB/wQEAwIBBjA6BgNVHR8EMzAxMC+g
LaArhilodHRwOi8vY3JsLmdlb3RydXN0LmNvbS9jcmxzL3NlY3VyZWNhLmNybDBO
BgNVHSAERzBFMEMGBFUdIAAwOzA5BggrBgEFBQcCARYtaHR0cHM6Ly93d3cuZ2Vv
dHJ1c3QuY29tL3Jlc291cmNlcy9yZXBvc2l0b3J5MA0GCSqGSIb3DQEBBQUAA4GB
AHbhEm5OSxYShjAGsoEIz/AIx8dxfmbuwu3UOx//8PDITtZDOLC5MH0Y0FWDomrL
NhGc6Ehmo21/uBPUR/6LWlxz/K7ZGzIZOKuXNBSqltLroxwUCEm2u+WR74M26x1W
b8ravHNjkOR/ez4iyz0H7V84dJzjA1BOoa+Y7mHyhD8S
-----END CERTIFICATE-----
