Certificate:
    Data:
        Version: 3 (0x2)
        Serial Number: 146039 (0x23a77)
        Signature Algorithm: sha256WithRSAEncryption
        Issuer: C=US, O=GeoTrust Inc., CN=GeoTrust Global CA
        Validity
            Not Before: Aug 29 21:39:32 2014 GMT
            Not After : May 20 21:39:32 2022 GMT
        Subject: C=US, O=GeoTrust Inc., CN=RapidSSL SHA256 CA - G3
        Subject Public Key Info:
            Public Key Algorithm: rsaEncryption
            RSA Public Key: (2048 bit)
                Modulus (2048 bit):
                    00:af:54:9b:d9:58:5d:1e:2c:56:c6:d5:e8:7f:f4:
                    7d:16:03:ff:d0:8b:5a:e4:8e:a7:dd:54:2e:d4:04:
                    c0:5d:98:9c:8d:90:0f:bc:10:65:5f:da:9a:d6:44:
                    7c:c0:9f:b5:e9:4a:8c:0b:06:43:04:bb:f4:96:e2:
                    26:f6:61:01:91:66:31:22:c3:34:34:5f:3f:3f:91:
                    2f:44:5f:dc:c7:14:b6:03:9f:86:4b:0e:a3:ff:a0:
                    80:02:83:c3:d3:1f:69:52:d6:9d:64:0f:c9:83:e7:
                    1b:c4:70:ac:94:e7:c3:a4:6a:2c:bd:b8:9e:69:d8:
                    be:0a:8f:16:63:5a:68:71:80:7b:30:de:15:04:bf:
                    cc:d3:bf:3e:48:05:55:7a:b3:d7:10:0c:03:fc:9b:
                    fd:08:a7:8c:8c:db:a7:8e:f1:1e:63:dc:b3:01:2f:
                    7f:af:57:c3:3c:48:a7:83:68:21:a7:2f:e7:a7:3f:
                    f0:b5:0c:fc:f5:84:d1:53:bc:0e:72:4f:60:0c:42:
                    b8:98:ad:19:88:57:d7:04:ec:87:bf:7e:87:4e:a3:
                    21:f9:53:fd:36:98:48:8d:d6:f8:bb:48:f2:29:c8:
                    64:d1:cc:54:48:53:8b:af:b7:65:1e:bf:29:33:29:
                    d9:29:60:48:f8:ff:91:bc:57:58:e5:35:2e:bb:69:
                    b6:59
                Exponent: 65537 (0x10001)
        X509v3 extensions:
            X509v3 Authority Key Identifier: 
                keyid:C0:7A:98:68:8D:89:FB:AB:05:64:0C:11:7D:AA:7D:65:B8:CA:CC:4E

            X509v3 Subject Key Identifier: 
                C3:9C:F3:FC:D3:46:08:34:BB:CE:46:7F:A0:7C:5B:F3:E2:08:CB:59
            X509v3 Basic Constraints: critical
                CA:TRUE, pathlen:0
            X509v3 Key Usage: critical
                Certificate Sign, CRL Sign
            X509v3 CRL Distribution Points: 
                URI:http://g.symcb.com/crls/gtglobal.crl

            Authority Information Access: 
                OCSP - URI:http://g.symcd.com

            X509v3 Certificate Policies: 
                Policy: 2.16.840.1.113733.1.7.54
                  CPS: http://www.geotrust.com/resources/cps

    Signature Algorithm: sha256WithRSAEncryption
        a3:58:1e:c6:43:32:ac:ac:2f:93:78:b7:ea:ae:54:40:47:2d:
        7e:78:8d:50:f6:f8:66:ac:d6:4f:73:d6:44:ef:af:0b:cc:5b:
        c1:f4:4f:9a:8f:49:7e:60:af:c2:27:c7:16:f1:fb:93:81:90:
        a9:7c:ef:6f:7e:6e:45:94:16:84:bd:ec:49:f1:c4:0e:f4:af:
        04:59:83:87:0f:2c:3b:97:c3:5a:12:9b:7b:04:35:7b:a3:95:
        33:08:7b:93:71:22:42:b3:a9:d9:6f:4f:81:92:fc:07:b6:79:
        bc:84:4a:9d:77:09:f1:c5:89:f2:f0:b4:9c:54:aa:12:7b:0d:
        ba:4f:ef:93:19:ec:ef:7d:4e:61:a3:8e:76:9c:59:cf:8c:94:
        b1:84:97:f7:1a:b9:07:b8:b2:c6:4f:13:79:db:bf:4f:51:1b:
        7f:69:0d:51:2a:c1:d6:15:ff:37:51:34:65:51:f4:1e:be:38:
        6a:ec:0e:ab:bf:3d:7b:39:05:7b:f4:f3:fb:1a:a1:d0:c8:7e:
        4e:64:8d:cd:8c:61:55:90:fe:3a:ca:5d:25:0f:f8:1d:a3:4a:
        74:56:4f:1a:55:40:70:75:25:a6:33:2e:ba:4b:a5:5d:53:9a:
        0d:30:e1:8d:5f:61:2c:af:cc:ef:b0:99:a1:80:ff:0b:f2:62:
        4c:70:26:98
-----BEGIN CERTIFICATE-----
MIIEJTCCAw2gAwIBAgIDAjp3MA0GCSqGSIb3DQEBCwUAMEIxCzAJBgNVBAYTAlVT
MRYwFAYDVQQKEw1HZW9UcnVzdCBJbmMuMRswGQYDVQQDExJHZW9UcnVzdCBHbG9i
YWwgQ0EwHhcNMTQwODI5MjEzOTMyWhcNMjIwNTIwMjEzOTMyWjBHMQswCQYDVQQG
EwJVUzEWMBQGA1UEChMNR2VvVHJ1c3QgSW5jLjEgMB4GA1UEAxMXUmFwaWRTU0wg
U0hBMjU2IENBIC0gRzMwggEiMA0GCSqGSIb3DQEBAQUAA4IBDwAwggEKAoIBAQCv
VJvZWF0eLFbG1eh/9H0WA//Qi1rkjqfdVC7UBMBdmJyNkA+8EGVf2prWRHzAn7Xp
SowLBkMEu/SW4ib2YQGRZjEiwzQ0Xz8/kS9EX9zHFLYDn4ZLDqP/oIACg8PTH2lS
1p1kD8mD5xvEcKyU58Okaiy9uJ5p2L4KjxZjWmhxgHsw3hUEv8zTvz5IBVV6s9cQ
DAP8m/0Ip4yM26eO8R5j3LMBL3+vV8M8SKeDaCGnL+enP/C1DPz1hNFTvA5yT2AM
QriYrRmIV9cE7Ie/fodOoyH5U/02mEiN1vi7SPIpyGTRzFRIU4uvt2UevykzKdkp
YEj4/5G8V1jlNS67abZZAgMBAAGjggEdMIIBGTAfBgNVHSMEGDAWgBTAephojYn7
qwVkDBF9qn1luMrMTjAdBgNVHQ4EFgQUw5zz/NNGCDS7zkZ/oHxb8+IIy1kwEgYD
VR0TAQH/BAgwBgEB/wIBADAOBgNVHQ8BAf8EBAMCAQYwNQYDVR0fBC4wLDAqoCig
JoYkaHR0cDovL2cuc3ltY2IuY29tL2NybHMvZ3RnbG9iYWwuY3JsMC4GCCsGAQUF
BwEBBCIwIDAeBggrBgEFBQcwAYYSaHR0cDovL2cuc3ltY2QuY29tMEwGA1UdIARF
MEMwQQYKYIZIAYb4RQEHNjAzMDEGCCsGAQUFBwIBFiVodHRwOi8vd3d3Lmdlb3Ry
dXN0LmNvbS9yZXNvdXJjZXMvY3BzMA0GCSqGSIb3DQEBCwUAA4IBAQCjWB7GQzKs
rC+TeLfqrlRARy1+eI1Q9vhmrNZPc9ZE768LzFvB9E+aj0l+YK/CJ8cW8fuTgZCp
fO9vfm5FlBaEvexJ8cQO9K8EWYOHDyw7l8NaEpt7BDV7o5UzCHuTcSJCs6nZb0+B
kvwHtnm8hEqddwnxxYny8LScVKoSew26T++TGezvfU5ho452nFnPjJSxhJf3GrkH
uLLGTxN5279PURt/aQ1RKsHWFf83UTRlUfQevjhq7A6rvz17OQV79PP7GqHQyH5O
ZI3NjGFVkP46yl0lD/gdo0p0Vk8aVUBwdSWmMy66S6VdU5oNMOGNX2Esr8zvsJmh
gP8L8mJMcCaY
-----END CERTIFICATE-----
